; Function Attrs: nounwind uwtable
define void @redisAsyncRead(ptr noundef %ac) local_unnamed_addr #0 {
entry:
  %call = tail call i32 @redisBufferRead(ptr noundef %ac) #14
  %cmp = icmp eq i32 %call, -1
  br i1 %cmp, label %if.then, label %do.body

if.then:                                          ; preds = %entry
  %tobool.not.i.i = icmp eq ptr %ac, null
  br i1 %tobool.not.i.i, label %entry.__redisAsyncCopyError.exit_crit_edge.i, label %if.end.i.i

entry.__redisAsyncCopyError.exit_crit_edge.i:     ; preds = %if.then
  %.pre.i = load i32, ptr inttoptr (i64 272 to ptr), align 16
  br label %__redisAsyncCopyError.exit.i

if.end.i.i:                                       ; preds = %if.then
  %err.i.i = getelementptr inbounds i8, ptr %ac, i64 8
  %0 = load i32, ptr %err.i.i, align 8
  %err2.i.i = getelementptr inbounds i8, ptr %ac, i64 272
  store i32 %0, ptr %err2.i.i, align 8
  %errstr.i.i = getelementptr inbounds i8, ptr %ac, i64 12
  %errstr3.i.i = getelementptr inbounds i8, ptr %ac, i64 280
  store ptr %errstr.i.i, ptr %errstr3.i.i, align 8
  br label %__redisAsyncCopyError.exit.i

__redisAsyncCopyError.exit.i:                     ; preds = %if.end.i.i, %entry.__redisAsyncCopyError.exit_crit_edge.i
  %1 = phi i32 [ %.pre.i, %entry.__redisAsyncCopyError.exit_crit_edge.i ], [ %0, %if.end.i.i ]
  %cmp.i = icmp eq i32 %1, 0
  br i1 %cmp.i, label %if.then.i, label %if.else.i

if.then.i:                                        ; preds = %__redisAsyncCopyError.exit.i
  %replies.i = getelementptr inbounds i8, ptr %ac, i64 384
  %2 = load ptr, ptr %replies.i, align 8
  %cmp.not.i.i = icmp eq ptr %2, null
  br i1 %cmp.not.i.i, label %do.body.i, label %if.then.i.i

if.then.i.i:                                      ; preds = %if.then.i
  %3 = load ptr, ptr %2, align 8
  store ptr %3, ptr %replies.i, align 8
  %tail.i.i = getelementptr inbounds i8, ptr %ac, i64 392
  %4 = load ptr, ptr %tail.i.i, align 8
  %cmp2.i.i = icmp eq ptr %2, %4
  br i1 %cmp2.i.i, label %if.then3.i.i, label %if.end.i10.i

if.then3.i.i:                                     ; preds = %if.then.i.i
  store ptr null, ptr %tail.i.i, align 8
  br label %if.end.i10.i

if.end.i10.i:                                     ; preds = %if.then3.i.i, %if.then.i.i
  %5 = load ptr, ptr getelementptr inbounds (%struct.hiredisAllocFuncs, ptr @hiredisAllocFns, i64 0, i32 4), align 8
  tail call void %5(ptr noundef nonnull %2) #14
  br label %do.body.i

if.else.i:                                        ; preds = %__redisAsyncCopyError.exit.i
  %flags.i = getelementptr inbounds i8, ptr %ac, i64 144
  %6 = load i32, ptr %flags.i, align 8
  %or.i = or i32 %6, 4
  store i32 %or.i, ptr %flags.i, align 8
  br label %do.body.i

do.body.i:                                        ; preds = %if.else.i, %if.end.i10.i, %if.then.i
  %cleanup.i = getelementptr inbounds i8, ptr %ac, i64 344
  %7 = load ptr, ptr %cleanup.i, align 8
  %tobool.not.i = icmp eq ptr %7, null
  br i1 %tobool.not.i, label %if.end7.i, label %if.then3.i

if.then3.i:                                       ; preds = %do.body.i
  %ev.i = getelementptr inbounds i8, ptr %ac, i64 304
  %8 = load ptr, ptr %ev.i, align 8
  tail call void %7(ptr noundef %8) #14
  br label %if.end7.i

if.end7.i:                                        ; preds = %if.then3.i, %do.body.i
  store ptr null, ptr %cleanup.i, align 8
  %flags10.i = getelementptr inbounds i8, ptr %ac, i64 144
  %9 = load i32, ptr %flags10.i, align 8
  %and.i = and i32 %9, 512
  %tobool11.not.i = icmp eq i32 %and.i, 0
  br i1 %tobool11.not.i, label %if.then12.i, label %if.end6

if.then12.i:                                      ; preds = %if.end7.i
  tail call fastcc void @__redisAsyncFree(ptr noundef nonnull %ac)
  br label %if.end6

do.body:                                          ; preds = %entry
  %flags.i7 = getelementptr inbounds i8, ptr %ac, i64 144
  %10 = load i32, ptr %flags.i7, align 8
  %and.i8 = and i32 %10, 2
  %tobool.not.i9 = icmp eq i32 %and.i8, 0
  %ev17.i = getelementptr inbounds i8, ptr %ac, i64 304
  %scheduleTimer18.i = getelementptr inbounds i8, ptr %ac, i64 352
  %11 = load ptr, ptr %scheduleTimer18.i, align 8
  %tobool19.not.i = icmp eq ptr %11, null
  br i1 %tobool.not.i9, label %if.else.i11, label %if.then.i10

if.then.i10:                                      ; preds = %do.body
  br i1 %tobool19.not.i, label %refreshTimeout.exit, label %land.lhs.true.i

land.lhs.true.i:                                  ; preds = %if.then.i10
  %command_timeout.i = getelementptr inbounds i8, ptr %ac, i64 184
  %12 = load ptr, ptr %command_timeout.i, align 8
  %tobool3.not.i = icmp eq ptr %12, null
  br i1 %tobool3.not.i, label %refreshTimeout.exit, label %land.lhs.true4.i

land.lhs.true4.i:                                 ; preds = %land.lhs.true.i
  %13 = load i64, ptr %12, align 8
  %tobool7.not.i = icmp eq i64 %13, 0
  %tv_usec.i = getelementptr inbounds i8, ptr %12, i64 8
  %14 = load i64, ptr %tv_usec.i, align 8
  %tobool10.not.i = icmp eq i64 %14, 0
  %or.cond.i = select i1 %tobool7.not.i, i1 %tobool10.not.i, i1 false
  br i1 %or.cond.i, label %refreshTimeout.exit, label %if.then11.i

if.then11.i:                                      ; preds = %land.lhs.true4.i
  %15 = load ptr, ptr %ev17.i, align 8
  tail call void %11(ptr noundef %15, i64 %13, i64 %14) #14
  br label %refreshTimeout.exit

if.else.i11:                                      ; preds = %do.body
  br i1 %tobool19.not.i, label %refreshTimeout.exit, label %land.lhs.true20.i

land.lhs.true20.i:                                ; preds = %if.else.i11
  %connect_timeout.i = getelementptr inbounds i8, ptr %ac, i64 176
  %16 = load ptr, ptr %connect_timeout.i, align 8
  %tobool22.not.i = icmp eq ptr %16, null
  br i1 %tobool22.not.i, label %refreshTimeout.exit, label %land.lhs.true23.i

land.lhs.true23.i:                                ; preds = %land.lhs.true20.i
  %17 = load i64, ptr %16, align 8
  %tobool27.not.i = icmp eq i64 %17, 0
  %tv_usec31.i = getelementptr inbounds i8, ptr %16, i64 8
  %18 = load i64, ptr %tv_usec31.i, align 8
  %tobool32.not.i = icmp eq i64 %18, 0
  %or.cond18.i = select i1 %tobool27.not.i, i1 %tobool32.not.i, i1 false
  br i1 %or.cond18.i, label %refreshTimeout.exit, label %if.then33.i

if.then33.i:                                      ; preds = %land.lhs.true23.i
  %19 = load ptr, ptr %ev17.i, align 8
  tail call void %11(ptr noundef %19, i64 %17, i64 %18) #14
  br label %refreshTimeout.exit

refreshTimeout.exit:                              ; preds = %if.then.i10, %land.lhs.true.i, %land.lhs.true4.i, %if.then11.i, %if.else.i11, %land.lhs.true20.i, %land.lhs.true23.i, %if.then33.i
  %addRead = getelementptr inbounds i8, ptr %ac, i64 312
  %20 = load ptr, ptr %addRead, align 8
  %tobool.not = icmp eq ptr %20, null
  br i1 %tobool.not, label %do.end, label %if.then2

if.then2:                                         ; preds = %refreshTimeout.exit
  %21 = load ptr, ptr %ev17.i, align 8
  tail call void %20(ptr noundef %21) #14
  br label %do.end

do.end:                                           ; preds = %refreshTimeout.exit, %if.then2
  tail call void @redisProcessCallbacks(ptr noundef nonnull %ac)
  br label %if.end6

if.end6:                                          ; preds = %if.then12.i, %if.end7.i, %do.end
  ret void
}